target datalayout = "e-m:e-p270:32:32-p271:32:32-p272:64:64-i64:64-i128:128-f80:128-n8:16:32:64-S128"
target triple = "x86_64-pc-linux-gnu"

%struct.List = type { i32, i32, i32, ptr, [0 x %union.ListCell] }
%union.ListCell = type { ptr }
%struct.PortalData = type { ptr, ptr, ptr, ptr, ptr, i32, i32, i32, ptr, i32, %struct.QueryCompletion, ptr, ptr, ptr, ptr, i32, i32, i32, i8, i8, ptr, ptr, ptr, ptr, ptr, ptr, ptr, i8, i8, i64, i64, i8 }
%struct.QueryCompletion = type { i32, i64 }
%struct._DestReceiver = type { ptr, ptr, ptr, ptr, i32 }

@.str.1 = private unnamed_addr constant [9 x i8] c"pquery.c\00", align 1
@None_Receiver = external global ptr, align 8
@.str.10 = private unnamed_addr constant [32 x i8] c"unsupported portal strategy: %d\00", align 1
@__func__.FillPortalStore = private unnamed_addr constant [16 x i8] c"FillPortalStore\00", align 1

; Function Attrs: inlinehint nounwind uwtable
define internal void @CopyQueryCompletion(ptr noundef %0, ptr noundef %1) #3 {
  %3 = alloca ptr, align 8
  %4 = alloca ptr, align 8
  store ptr %0, ptr %3, align 8
  store ptr %1, ptr %4, align 8
  %5 = load ptr, ptr %4, align 8
  %6 = getelementptr inbounds nuw %struct.QueryCompletion, ptr %5, i32 0, i32 0
  %7 = load i32, ptr %6, align 8
  %8 = load ptr, ptr %3, align 8
  %9 = getelementptr inbounds nuw %struct.QueryCompletion, ptr %8, i32 0, i32 0
  store i32 %7, ptr %9, align 8
  %10 = load ptr, ptr %4, align 8
  %11 = getelementptr inbounds nuw %struct.QueryCompletion, ptr %10, i32 0, i32 1
  %12 = load i64, ptr %11, align 8
  %13 = load ptr, ptr %3, align 8
  %14 = getelementptr inbounds nuw %struct.QueryCompletion, ptr %13, i32 0, i32 1
  store i64 %12, ptr %14, align 8
  ret void
}

; Function Attrs: inlinehint nounwind uwtable
define internal ptr @list_nth_cell(ptr noundef %0, i32 noundef %1) #3 {
  %3 = alloca ptr, align 8
  %4 = alloca i32, align 4
  store ptr %0, ptr %3, align 8
  store i32 %1, ptr %4, align 4
  %5 = load ptr, ptr %3, align 8
  %6 = getelementptr inbounds nuw %struct.List, ptr %5, i32 0, i32 3
  %7 = load ptr, ptr %6, align 8
  %8 = load i32, ptr %4, align 4
  %9 = sext i32 %8 to i64
  %10 = getelementptr inbounds %union.ListCell, ptr %7, i64 %9
  ret ptr %10
}

; Function Attrs: nounwind uwtable
define internal void @FillPortalStore(ptr noundef %0, i1 noundef zeroext %1) #0 {
  %3 = alloca ptr, align 8
  %4 = alloca i8, align 1
  %5 = alloca ptr, align 8
  %6 = alloca %struct.QueryCompletion, align 8
  store ptr %0, ptr %3, align 8
  %7 = zext i1 %1 to i8
  store i8 %7, ptr %4, align 1
  call void @llvm.lifetime.start.p0(i64 8, ptr %5) #10
  call void @llvm.lifetime.start.p0(i64 16, ptr %6) #10
  call void @InitializeQueryCompletion(ptr noundef %6)
  %8 = load ptr, ptr %3, align 8
  call void @PortalCreateHoldStore(ptr noundef %8)
  %9 = call ptr @CreateDestReceiver(i32 noundef 6)
  store ptr %9, ptr %5, align 8
  %10 = load ptr, ptr %5, align 8
  %11 = load ptr, ptr %3, align 8
  %12 = getelementptr inbounds nuw %struct.PortalData, ptr %11, i32 0, i32 24
  %13 = load ptr, ptr %12, align 8
  %14 = load ptr, ptr %3, align 8
  %15 = getelementptr inbounds nuw %struct.PortalData, ptr %14, i32 0, i32 25
  %16 = load ptr, ptr %15, align 8
  call void @SetTuplestoreDestReceiverParams(ptr noundef %10, ptr noundef %13, ptr noundef %16, i1 noundef zeroext false, ptr noundef null, ptr noundef null)
  %17 = load ptr, ptr %3, align 8
  %18 = getelementptr inbounds nuw %struct.PortalData, ptr %17, i32 0, i32 15
  %19 = load i32, ptr %18, align 8
  switch i32 %19, label %36 [
    i32 1, label %20
    i32 2, label %20
    i32 3, label %26
  ]

20:                                               ; preds = %2, %2
  %21 = load ptr, ptr %3, align 8
  %22 = load i8, ptr %4, align 1, !range !4, !noundef !5
  %23 = trunc i8 %22 to i1
  %24 = load ptr, ptr %5, align 8
  %25 = load ptr, ptr @None_Receiver, align 8
  call void @PortalRunMulti(ptr noundef %21, i1 noundef zeroext %23, i1 noundef zeroext true, ptr noundef %24, ptr noundef %25, ptr noundef %6)
  br label %50

26:                                               ; preds = %2
  %27 = load ptr, ptr %3, align 8
  %28 = load ptr, ptr %3, align 8
  %29 = getelementptr inbounds nuw %struct.PortalData, ptr %28, i32 0, i32 11
  %30 = load ptr, ptr %29, align 8
  %31 = call ptr @list_nth_cell(ptr noundef %30, i32 noundef 0)
  %32 = load ptr, ptr %31, align 8
  %33 = load i8, ptr %4, align 1, !range !4, !noundef !5
  %34 = trunc i8 %33 to i1
  %35 = load ptr, ptr %5, align 8
  call void @PortalRunUtility(ptr noundef %27, ptr noundef %32, i1 noundef zeroext %34, i1 noundef zeroext true, ptr noundef %35, ptr noundef %6)
  br label %50

36:                                               ; preds = %2
  br label %37

37:                                               ; preds = %36
  br i1 true, label %38, label %40

38:                                               ; preds = %37
  %39 = call zeroext i1 @errstart_cold(i32 noundef 21, ptr noundef null) #11
  br i1 %39, label %42, label %47

40:                                               ; preds = %37
  %41 = call zeroext i1 @errstart(i32 noundef 21, ptr noundef null)
  br i1 %41, label %42, label %47

42:                                               ; preds = %40, %38
  %43 = load ptr, ptr %3, align 8
  %44 = getelementptr inbounds nuw %struct.PortalData, ptr %43, i32 0, i32 15
  %45 = load i32, ptr %44, align 8
  %46 = call i32 (ptr, ...) @errmsg_internal(ptr noundef @.str.10, i32 noundef %45)
  call void @errfinish(ptr noundef @.str.1, i32 noundef 1031, ptr noundef @__func__.FillPortalStore)
  br label %47

47:                                               ; preds = %42, %40, %38
  unreachable

48:                                               ; No predecessors!
  br label %49

49:                                               ; preds = %48
  br label %50

50:                                               ; preds = %49, %26, %20
  %51 = getelementptr inbounds nuw %struct.QueryCompletion, ptr %6, i32 0, i32 0
  %52 = load i32, ptr %51, align 8
  %53 = icmp ne i32 %52, 0
  br i1 %53, label %54, label %57

54:                                               ; preds = %50
  %55 = load ptr, ptr %3, align 8
  %56 = getelementptr inbounds nuw %struct.PortalData, ptr %55, i32 0, i32 10
  call void @CopyQueryCompletion(ptr noundef %56, ptr noundef %6)
  br label %57

57:                                               ; preds = %54, %50
  %58 = load ptr, ptr %5, align 8
  %59 = getelementptr inbounds nuw %struct._DestReceiver, ptr %58, i32 0, i32 3
  %60 = load ptr, ptr %59, align 8
  %61 = load ptr, ptr %5, align 8
  call void %60(ptr noundef %61)
  call void @llvm.lifetime.end.p0(i64 16, ptr %6) #10
  call void @llvm.lifetime.end.p0(i64 8, ptr %5) #10
  ret void
}