; Function Attrs: nounwind uwtable
define internal fastcc void @FillPortalStore(ptr noundef %0, i1 noundef zeroext %1) unnamed_addr #0 {
  %3 = alloca %struct.QueryCompletion, align 8
  call void @llvm.lifetime.start.p0(i64 16, ptr nonnull %3) #11
  call void @InitializeQueryCompletion(ptr noundef nonnull %3) #11
  call void @PortalCreateHoldStore(ptr noundef %0) #11
  %4 = call ptr @CreateDestReceiver(i32 noundef 6) #11
  %5 = getelementptr inbounds nuw i8, ptr %0, i64 168
  %6 = load ptr, ptr %5, align 8
  %7 = getelementptr inbounds nuw i8, ptr %0, i64 176
  %8 = load ptr, ptr %7, align 8
  call void @SetTuplestoreDestReceiverParams(ptr noundef %4, ptr noundef %6, ptr noundef %8, i1 noundef zeroext false, ptr noundef null, ptr noundef null) #11
  %9 = getelementptr inbounds nuw i8, ptr %0, i64 120
  %10 = load i32, ptr %9, align 8
  switch i32 %10, label %18 [
    i32 1, label %11
    i32 2, label %11
    i32 3, label %13
  ]

11:                                               ; preds = %2, %2
  %12 = load ptr, ptr @None_Receiver, align 8
  call fastcc void @PortalRunMulti(ptr noundef nonnull %0, i1 noundef zeroext %1, i1 noundef zeroext true, ptr noundef %4, ptr noundef %12, ptr noundef nonnull %3)
  br label %22

13:                                               ; preds = %2
  %14 = getelementptr inbounds nuw i8, ptr %0, i64 88
  %15 = load ptr, ptr %14, align 8
  %16 = getelementptr i8, ptr %15, i64 16
  %.val = load ptr, ptr %16, align 8
  %17 = load ptr, ptr %.val, align 8
  call fastcc void @PortalRunUtility(ptr noundef nonnull %0, ptr noundef %17, i1 noundef zeroext %1, i1 noundef zeroext true, ptr noundef %4, ptr noundef nonnull %3)
  br label %22

18:                                               ; preds = %2
  %19 = call zeroext i1 @errstart_cold(i32 noundef 21, ptr noundef null) #12
  call void @llvm.assume(i1 %19)
  %20 = load i32, ptr %9, align 8
  %21 = call i32 (ptr, ...) @errmsg_internal(ptr noundef nonnull @.str.10, i32 noundef %20) #11
  call void @errfinish(ptr noundef nonnull @.str.1, i32 noundef 1031, ptr noundef nonnull @__func__.FillPortalStore) #11
  unreachable

22:                                               ; preds = %13, %11
  %23 = load i32, ptr %3, align 8
  %.not = icmp eq i32 %23, 0
  br i1 %.not, label %29, label %24

24:                                               ; preds = %22
  %25 = getelementptr inbounds nuw i8, ptr %0, i64 72
  store i32 %23, ptr %25, align 8
  %26 = getelementptr inbounds nuw i8, ptr %3, i64 8
  %27 = load i64, ptr %26, align 8
  %28 = getelementptr inbounds nuw i8, ptr %0, i64 80
  store i64 %27, ptr %28, align 8
  br label %29

29:                                               ; preds = %24, %22
  %30 = getelementptr inbounds nuw i8, ptr %4, i64 24
  %31 = load ptr, ptr %30, align 8
  call void %31(ptr noundef %4) #11
  call void @llvm.lifetime.end.p0(i64 16, ptr nonnull %3) #11
  ret void
}